target datalayout = "e-m:e-p270:32:32-p271:32:32-p272:64:64-i64:64-i128:128-f80:128-n8:16:32:64-S128"
target triple = "x86_64-pc-linux-gnu"

%"class.duckdb_re2::BitState" = type <{ ptr, %"class.duckdb_re2::StringPiece", %"class.duckdb_re2::StringPiece", i8, i8, i8, [5 x i8], ptr, i32, [4 x i8], %"class.duckdb_re2::PODArray", %"class.duckdb_re2::PODArray.2", %"class.duckdb_re2::PODArray.11", i32, [4 x i8] }>
%"class.duckdb_re2::StringPiece" = type { ptr, i64 }
%"class.duckdb_re2::PODArray" = type { %"class.std::unique_ptr" }
%"class.std::unique_ptr" = type { %"struct.std::__uniq_ptr_data" }
%"struct.std::__uniq_ptr_data" = type { %"class.std::__uniq_ptr_impl" }
%"class.std::__uniq_ptr_impl" = type { %"class.std::tuple" }
%"class.std::tuple" = type { %"struct.std::_Tuple_impl" }
%"struct.std::_Tuple_impl" = type { %"struct.std::_Tuple_impl.0", %"struct.std::_Head_base.1" }
%"struct.std::_Tuple_impl.0" = type { %"struct.std::_Head_base" }
%"struct.std::_Head_base" = type { %"struct.duckdb_re2::PODArray<unsigned long>::Deleter" }
%"struct.duckdb_re2::PODArray<unsigned long>::Deleter" = type { i32 }
%"struct.std::_Head_base.1" = type { ptr }
%"class.duckdb_re2::PODArray.2" = type { %"class.std::unique_ptr.3" }
%"class.std::unique_ptr.3" = type { %"struct.std::__uniq_ptr_data.4" }
%"struct.std::__uniq_ptr_data.4" = type { %"class.std::__uniq_ptr_impl.5" }
%"class.std::__uniq_ptr_impl.5" = type { %"class.std::tuple.6" }
%"class.std::tuple.6" = type { %"struct.std::_Tuple_impl.7" }
%"struct.std::_Tuple_impl.7" = type { %"struct.std::_Tuple_impl.8", %"struct.std::_Head_base.10" }
%"struct.std::_Tuple_impl.8" = type { %"struct.std::_Head_base.9" }
%"struct.std::_Head_base.9" = type { %"struct.duckdb_re2::PODArray<const char *>::Deleter" }
%"struct.duckdb_re2::PODArray<const char *>::Deleter" = type { i32 }
%"struct.std::_Head_base.10" = type { ptr }
%"class.duckdb_re2::PODArray.11" = type { %"class.std::unique_ptr.12" }
%"class.std::unique_ptr.12" = type { %"struct.std::__uniq_ptr_data.13" }
%"struct.std::__uniq_ptr_data.13" = type { %"class.std::__uniq_ptr_impl.14" }
%"class.std::__uniq_ptr_impl.14" = type { %"class.std::tuple.15" }
%"class.std::tuple.15" = type { %"struct.std::_Tuple_impl.16" }
%"struct.std::_Tuple_impl.16" = type { %"struct.std::_Tuple_impl.17", %"struct.std::_Head_base.19" }
%"struct.std::_Tuple_impl.17" = type { %"struct.std::_Head_base.18" }
%"struct.std::_Head_base.18" = type { %"struct.duckdb_re2::PODArray<duckdb_re2::Job>::Deleter" }
%"struct.duckdb_re2::PODArray<duckdb_re2::Job>::Deleter" = type { i32 }
%"struct.std::_Head_base.19" = type { ptr }

@_ZN10duckdb_re28BitStateC1EPNS_4ProgE = hidden unnamed_addr alias void (ptr, ptr), ptr @_ZN10duckdb_re28BitStateC2EPNS_4ProgE

; Function Attrs: mustprogress nounwind uwtable
define linkonce_odr hidden noundef i64 @_ZNK10duckdb_re211StringPiece4sizeEv(ptr noundef nonnull align 8 dereferenceable(16) %0) #1 comdat align 2 {
  %2 = alloca ptr, align 8
  store ptr %0, ptr %2, align 8, !tbaa !57
  %3 = load ptr, ptr %2, align 8
  %4 = getelementptr inbounds nuw %"class.duckdb_re2::StringPiece", ptr %3, i32 0, i32 1
  %5 = load i64, ptr %4, align 8, !tbaa !59
  ret i64 %5
}

; Function Attrs: mustprogress nounwind uwtable
define linkonce_odr hidden noundef ptr @_ZNK10duckdb_re211StringPiece4dataEv(ptr noundef nonnull align 8 dereferenceable(16) %0) #1 comdat align 2 {
  %2 = alloca ptr, align 8
  store ptr %0, ptr %2, align 8, !tbaa !57
  %3 = load ptr, ptr %2, align 8
  %4 = getelementptr inbounds nuw %"class.duckdb_re2::StringPiece", ptr %3, i32 0, i32 0
  %5 = load ptr, ptr %4, align 8, !tbaa !58
  ret ptr %5
}

; Function Attrs: inlinehint mustprogress nounwind uwtable
define internal noundef ptr @_ZN10duckdb_re2L6EndPtrERKNS_11StringPieceE(ptr noundef nonnull align 8 dereferenceable(16) %0) #2 {
  %2 = alloca ptr, align 8
  store ptr %0, ptr %2, align 8, !tbaa !57
  %3 = load ptr, ptr %2, align 8, !tbaa !57
  %4 = call noundef ptr @_ZNK10duckdb_re211StringPiece4dataEv(ptr noundef nonnull align 8 dereferenceable(16) %3)
  %5 = load ptr, ptr %2, align 8, !tbaa !57
  %6 = call noundef i64 @_ZNK10duckdb_re211StringPiece4sizeEv(ptr noundef nonnull align 8 dereferenceable(16) %5)
  %7 = getelementptr inbounds nuw i8, ptr %4, i64 %6
  ret ptr %7
}

; Function Attrs: mustprogress nounwind uwtable
define linkonce_odr hidden void @_ZN10duckdb_re211StringPieceC2Ev(ptr noundef nonnull align 8 dereferenceable(16) %0) unnamed_addr #1 comdat align 2 {
  %2 = alloca ptr, align 8
  store ptr %0, ptr %2, align 8, !tbaa !57
  %3 = load ptr, ptr %2, align 8
  %4 = getelementptr inbounds nuw %"class.duckdb_re2::StringPiece", ptr %3, i32 0, i32 0
  store ptr null, ptr %4, align 8, !tbaa !58
  %5 = getelementptr inbounds nuw %"class.duckdb_re2::StringPiece", ptr %3, i32 0, i32 1
  store i64 0, ptr %5, align 8, !tbaa !59
  ret void
}

; Function Attrs: mustprogress uwtable
define hidden noundef zeroext i1 @_ZN10duckdb_re24Prog14SearchBitStateERKNS_11StringPieceES3_NS0_6AnchorENS0_9MatchKindEPS1_i(ptr noundef nonnull align 8 dereferenceable(432) %0, ptr noundef nonnull align 8 dereferenceable(16) %1, ptr noundef nonnull align 8 dereferenceable(16) %2, i32 noundef %3, i32 noundef %4, ptr noundef %5, i32 noundef %6) #0 align 2 personality ptr @__gxx_personality_v0 {
  %8 = alloca i1, align 1
  %9 = alloca ptr, align 8
  %10 = alloca ptr, align 8
  %11 = alloca ptr, align 8
  %12 = alloca i32, align 4
  %13 = alloca i32, align 4
  %14 = alloca ptr, align 8
  %15 = alloca i32, align 4
  %16 = alloca %"class.duckdb_re2::StringPiece", align 8
  %17 = alloca %"class.duckdb_re2::BitState", align 8
  %18 = alloca i8, align 1
  %19 = alloca i8, align 1
  %20 = alloca ptr, align 8
  %21 = alloca i32, align 4
  %22 = alloca i32, align 4
  store ptr %0, ptr %9, align 8, !tbaa !8
  store ptr %1, ptr %10, align 8, !tbaa !57
  store ptr %2, ptr %11, align 8, !tbaa !57
  store i32 %3, ptr %12, align 4, !tbaa !152
  store i32 %4, ptr %13, align 4, !tbaa !154
  store ptr %5, ptr %14, align 8, !tbaa !57
  store i32 %6, ptr %15, align 4, !tbaa !67
  %23 = load ptr, ptr %9, align 8
  call void @llvm.lifetime.start.p0(i64 16, ptr %16) #16
  call void @_ZN10duckdb_re211StringPieceC2Ev(ptr noundef nonnull align 8 dereferenceable(16) %16)
  %24 = load i32, ptr %13, align 4, !tbaa !154
  %25 = icmp eq i32 %24, 2
  br i1 %25, label %26, label %31

26:                                               ; preds = %7
  store i32 1, ptr %12, align 4, !tbaa !152
  %27 = load i32, ptr %15, align 4, !tbaa !67
  %28 = icmp slt i32 %27, 1
  br i1 %28, label %29, label %30

29:                                               ; preds = %26
  store ptr %16, ptr %14, align 8, !tbaa !57
  store i32 1, ptr %15, align 4, !tbaa !67
  br label %30

30:                                               ; preds = %29, %26
  br label %31

31:                                               ; preds = %30, %7
  call void @llvm.lifetime.start.p0(i64 120, ptr %17) #16
  call void @_ZN10duckdb_re28BitStateC1EPNS_4ProgE(ptr noundef nonnull align 8 dereferenceable(116) %17, ptr noundef %23)
  call void @llvm.lifetime.start.p0(i64 1, ptr %18) #16
  %32 = load i32, ptr %12, align 4, !tbaa !152
  %33 = icmp eq i32 %32, 1
  %34 = zext i1 %33 to i8
  store i8 %34, ptr %18, align 1, !tbaa !93
  call void @llvm.lifetime.start.p0(i64 1, ptr %19) #16
  %35 = load i32, ptr %13, align 4, !tbaa !154
  %36 = icmp ne i32 %35, 0
  %37 = zext i1 %36 to i8
  store i8 %37, ptr %19, align 1, !tbaa !93
  %38 = load ptr, ptr %10, align 8, !tbaa !57
  %39 = load ptr, ptr %11, align 8, !tbaa !57
  %40 = load i8, ptr %18, align 1, !tbaa !93, !range !91, !noundef !92
  %41 = trunc i8 %40 to i1
  %42 = load i8, ptr %19, align 1, !tbaa !93, !range !91, !noundef !92
  %43 = trunc i8 %42 to i1
  %44 = load ptr, ptr %14, align 8, !tbaa !57
  %45 = load i32, ptr %15, align 4, !tbaa !67
  %46 = invoke noundef zeroext i1 @_ZN10duckdb_re28BitState6SearchERKNS_11StringPieceES3_bbPS1_i(ptr noundef nonnull align 8 dereferenceable(116) %17, ptr noundef nonnull align 8 dereferenceable(16) %38, ptr noundef nonnull align 8 dereferenceable(16) %39, i1 noundef zeroext %41, i1 noundef zeroext %43, ptr noundef %44, i32 noundef %45)
          to label %47 unwind label %49

47:                                               ; preds = %31
  br i1 %46, label %53, label %48

48:                                               ; preds = %47
  store i1 false, ptr %8, align 1
  store i32 1, ptr %22, align 4
  br label %67

49:                                               ; preds = %60, %56, %31
  %50 = landingpad { ptr, i32 }
          cleanup
  %51 = extractvalue { ptr, i32 } %50, 0
  store ptr %51, ptr %20, align 8
  %52 = extractvalue { ptr, i32 } %50, 1
  store i32 %52, ptr %21, align 4
  call void @llvm.lifetime.end.p0(i64 1, ptr %19) #16
  call void @llvm.lifetime.end.p0(i64 1, ptr %18) #16
  call void @_ZN10duckdb_re28BitStateD2Ev(ptr noundef nonnull align 8 dereferenceable(116) %17) #16
  call void @llvm.lifetime.end.p0(i64 120, ptr %17) #16
  call void @llvm.lifetime.end.p0(i64 16, ptr %16) #16
  br label %69

53:                                               ; preds = %47
  %54 = load i32, ptr %13, align 4, !tbaa !154
  %55 = icmp eq i32 %54, 2
  br i1 %55, label %56, label %66

56:                                               ; preds = %53
  %57 = load ptr, ptr %14, align 8, !tbaa !57
  %58 = getelementptr inbounds %"class.duckdb_re2::StringPiece", ptr %57, i64 0
  %59 = invoke noundef ptr @_ZN10duckdb_re2L6EndPtrERKNS_11StringPieceE(ptr noundef nonnull align 8 dereferenceable(16) %58)
          to label %60 unwind label %49

60:                                               ; preds = %56
  %61 = load ptr, ptr %10, align 8, !tbaa !57
  %62 = invoke noundef ptr @_ZN10duckdb_re2L6EndPtrERKNS_11StringPieceE(ptr noundef nonnull align 8 dereferenceable(16) %61)
          to label %63 unwind label %49

63:                                               ; preds = %60
  %64 = icmp ne ptr %59, %62
  br i1 %64, label %65, label %66

65:                                               ; preds = %63
  store i1 false, ptr %8, align 1
  store i32 1, ptr %22, align 4
  br label %67

66:                                               ; preds = %63, %53
  store i1 true, ptr %8, align 1
  store i32 1, ptr %22, align 4
  br label %67

67:                                               ; preds = %66, %65, %48
  call void @llvm.lifetime.end.p0(i64 1, ptr %19) #16
  call void @llvm.lifetime.end.p0(i64 1, ptr %18) #16
  call void @_ZN10duckdb_re28BitStateD2Ev(ptr noundef nonnull align 8 dereferenceable(116) %17) #16
  call void @llvm.lifetime.end.p0(i64 120, ptr %17) #16
  call void @llvm.lifetime.end.p0(i64 16, ptr %16) #16
  %68 = load i1, ptr %8, align 1
  ret i1 %68

69:                                               ; preds = %49
  %70 = load ptr, ptr %20, align 8
  %71 = load i32, ptr %21, align 4
  %72 = insertvalue { ptr, i32 } poison, ptr %70, 0
  %73 = insertvalue { ptr, i32 } %72, i32 %71, 1
  resume { ptr, i32 } %73
}