; Function Attrs: mustprogress uwtable
define hidden noundef zeroext i1 @_ZN10duckdb_re24Prog14SearchBitStateERKNS_11StringPieceES3_NS0_6AnchorENS0_9MatchKindEPS1_i(ptr noundef nonnull align 8 dereferenceable(432) %0, ptr noundef nonnull readonly align 8 captures(none) dereferenceable(16) %1, ptr noundef nonnull readonly align 8 captures(none) dereferenceable(16) %2, i32 noundef %3, i32 noundef %4, ptr noundef %5, i32 noundef %6) local_unnamed_addr #1 align 2 personality ptr @__gxx_personality_v0 {
  %8 = alloca %"class.duckdb_re2::StringPiece", align 8
  %9 = alloca %"class.duckdb_re2::BitState", align 8
  call void @llvm.lifetime.start.p0(i64 16, ptr nonnull %8) #18
  call void @llvm.memset.p0.i64(ptr noundef nonnull align 8 dereferenceable(16) %8, i8 0, i64 16, i1 false)
  %10 = icmp eq i32 %4, 2
  %11 = icmp slt i32 %6, 1
  %spec.select = tail call i32 @llvm.smax.i32(i32 %6, i32 1)
  %spec.select22 = select i1 %11, ptr %8, ptr %5
  %.018 = select i1 %10, i32 %spec.select, i32 %6
  %.017 = select i1 %10, ptr %spec.select22, ptr %5
  call void @llvm.lifetime.start.p0(i64 120, ptr nonnull %9) #18
  store ptr %0, ptr %9, align 8, !tbaa !3
  %12 = getelementptr inbounds nuw i8, ptr %9, i64 8
  %13 = getelementptr inbounds nuw i8, ptr %9, i64 48
  store ptr null, ptr %13, align 8, !tbaa !48
  %14 = getelementptr inbounds nuw i8, ptr %9, i64 56
  store i32 0, ptr %14, align 8, !tbaa !49
  %15 = getelementptr inbounds nuw i8, ptr %9, i64 64
  call void @llvm.memset.p0.i64(ptr noundef nonnull align 8 dereferenceable(35) %12, i8 0, i64 35, i1 false)
  call void @llvm.memset.p0.i64(ptr noundef nonnull align 8 dereferenceable(52) %15, i8 0, i64 52, i1 false)
  %16 = icmp eq i32 %3, 1
  %17 = or i1 %16, %10
  %18 = icmp ne i32 %4, 0
  %19 = invoke noundef zeroext i1 @_ZN10duckdb_re28BitState6SearchERKNS_11StringPieceES3_bbPS1_i(ptr noundef nonnull align 8 dereferenceable(116) %9, ptr noundef nonnull align 8 dereferenceable(16) %1, ptr noundef nonnull align 8 dereferenceable(16) %2, i1 noundef zeroext %17, i1 noundef zeroext %18, ptr noundef %.017, i32 noundef %.018)
          to label %20 unwind label %21

20:                                               ; preds = %7
  br i1 %19, label %23, label %29

21:                                               ; preds = %7
  %22 = landingpad { ptr, i32 }
          cleanup
  call void @_ZN10duckdb_re28BitStateD2Ev(ptr noundef nonnull align 8 dereferenceable(116) %9) #18
  call void @llvm.lifetime.end.p0(i64 120, ptr nonnull %9) #18
  call void @llvm.lifetime.end.p0(i64 16, ptr nonnull %8) #18
  resume { ptr, i32 } %22

23:                                               ; preds = %20
  br i1 %10, label %24, label %28

24:                                               ; preds = %23
  %.017.val = load ptr, ptr %spec.select22, align 8, !tbaa !74
  %spec.select22.sroa.sel.v.sroa.sel.v = select i1 %11, ptr %8, ptr %5
  %spec.select22.sroa.sel.v.sroa.sel = getelementptr i8, ptr %spec.select22.sroa.sel.v.sroa.sel.v, i64 8
  %.017.val24 = load i64, ptr %spec.select22.sroa.sel.v.sroa.sel, align 8, !tbaa !75
  %25 = getelementptr inbounds nuw i8, ptr %.017.val, i64 %.017.val24
  %.val = load ptr, ptr %1, align 8, !tbaa !74
  %26 = getelementptr inbounds nuw i8, ptr %1, i64 8
  %.val23 = load i64, ptr %26, align 8, !tbaa !75
  %27 = getelementptr inbounds nuw i8, ptr %.val, i64 %.val23
  %.not = icmp eq ptr %25, %27
  br i1 %.not, label %28, label %29

28:                                               ; preds = %24, %23
  br label %29

29:                                               ; preds = %24, %20, %28
  %.0 = phi i1 [ true, %28 ], [ false, %20 ], [ false, %24 ]
  %30 = getelementptr inbounds nuw i8, ptr %9, i64 104
  %31 = load ptr, ptr %30, align 8, !tbaa !52
  %.not.i.i.i = icmp eq ptr %31, null
  br i1 %.not.i.i.i, label %_ZN10duckdb_re28PODArrayINS_3JobEED2Ev.exit.i, label %32

32:                                               ; preds = %29
  call void @_ZdlPv(ptr noundef nonnull %31) #17
  br label %_ZN10duckdb_re28PODArrayINS_3JobEED2Ev.exit.i

_ZN10duckdb_re28PODArrayINS_3JobEED2Ev.exit.i:    ; preds = %32, %29
  store ptr null, ptr %30, align 8, !tbaa !52
  %33 = getelementptr inbounds nuw i8, ptr %9, i64 88
  %34 = load ptr, ptr %33, align 8, !tbaa !85
  %.not.i.i1.i = icmp eq ptr %34, null
  br i1 %.not.i.i1.i, label %_ZN10duckdb_re28PODArrayIPKcED2Ev.exit.i, label %35

35:                                               ; preds = %_ZN10duckdb_re28PODArrayINS_3JobEED2Ev.exit.i
  call void @_ZdlPv(ptr noundef nonnull %34) #17
  br label %_ZN10duckdb_re28PODArrayIPKcED2Ev.exit.i

_ZN10duckdb_re28PODArrayIPKcED2Ev.exit.i:         ; preds = %35, %_ZN10duckdb_re28PODArrayINS_3JobEED2Ev.exit.i
  store ptr null, ptr %33, align 8, !tbaa !85
  %36 = getelementptr inbounds nuw i8, ptr %9, i64 72
  %37 = load ptr, ptr %36, align 8, !tbaa !80
  %.not.i.i2.i = icmp eq ptr %37, null
  br i1 %.not.i.i2.i, label %_ZN10duckdb_re28BitStateD2Ev.exit, label %38

38:                                               ; preds = %_ZN10duckdb_re28PODArrayIPKcED2Ev.exit.i
  call void @_ZdlPv(ptr noundef nonnull %37) #17
  br label %_ZN10duckdb_re28BitStateD2Ev.exit

_ZN10duckdb_re28BitStateD2Ev.exit:                ; preds = %_ZN10duckdb_re28PODArrayIPKcED2Ev.exit.i, %38
  call void @llvm.lifetime.end.p0(i64 120, ptr nonnull %9) #18
  call void @llvm.lifetime.end.p0(i64 16, ptr nonnull %8) #18
  ret i1 %.0
}